; Function Attrs: mustprogress uwtable
define hidden noundef i32 @_ZN4ncnn5Scale10load_paramERKNS_9ParamDictE(ptr noundef nonnull align 8 captures(none) dereferenceable(360) initializes((208, 216)) %0, ptr noundef nonnull align 8 dereferenceable(16) %1) unnamed_addr #1 align 2 {
  %3 = tail call noundef i32 @_ZNK4ncnn9ParamDict3getEii(ptr noundef nonnull align 8 dereferenceable(16) %1, i32 noundef 0, i32 noundef 0)
  %4 = getelementptr inbounds nuw i8, ptr %0, i64 208
  store i32 %3, ptr %4, align 8, !tbaa !18
  %5 = tail call noundef i32 @_ZNK4ncnn9ParamDict3getEii(ptr noundef nonnull align 8 dereferenceable(16) %1, i32 noundef 1, i32 noundef 0)
  %6 = getelementptr inbounds nuw i8, ptr %0, i64 212
  store i32 %5, ptr %6, align 4, !tbaa !34
  %7 = load i32, ptr %4, align 8, !tbaa !18
  %8 = icmp eq i32 %7, -233
  br i1 %8, label %9, label %11

9:                                                ; preds = %2
  %10 = getelementptr inbounds nuw i8, ptr %0, i64 8
  store i8 0, ptr %10, align 8, !tbaa !35
  br label %11

11:                                               ; preds = %9, %2
  ret i32 0
}